; Function Attrs: nounwind uwtable
define ptr @Cudd_bddExistAbstract(ptr noundef %0, ptr noundef %1, ptr noundef %2) #0 {
  %4 = ptrtoint ptr %2 to i64
  %5 = and i64 %4, 1
  %.not11.i = icmp eq i64 %5, 0
  br i1 %.not11.i, label %.lr.ph.i, label %.loopexit12

.lr.ph.i:                                         ; preds = %3
  %6 = getelementptr inbounds nuw i8, ptr %0, i64 40
  %7 = load ptr, ptr %6, align 8, !tbaa !3
  %8 = ptrtoint ptr %7 to i64
  %9 = xor i64 %8, 1
  %10 = inttoptr i64 %9 to ptr
  br label %11

11:                                               ; preds = %tailrecurse.i, %.lr.ph.i
  %.tr1012.i = phi ptr [ %2, %.lr.ph.i ], [ %22, %tailrecurse.i ]
  %12 = icmp eq ptr %.tr1012.i, %7
  br i1 %12, label %bddCheckPositiveCube.exit.preheader, label %14

bddCheckPositiveCube.exit.preheader:              ; preds = %11
  %13 = getelementptr inbounds nuw i8, ptr %0, i64 448
  br label %bddCheckPositiveCube.exit

14:                                               ; preds = %11
  %15 = load i32, ptr %.tr1012.i, align 8, !tbaa !24
  %16 = icmp eq i32 %15, 2147483647
  br i1 %16, label %.loopexit12, label %17

17:                                               ; preds = %14
  %18 = getelementptr inbounds nuw i8, ptr %.tr1012.i, i64 24
  %19 = load ptr, ptr %18, align 8, !tbaa !25
  %20 = icmp eq ptr %19, %10
  br i1 %20, label %tailrecurse.i, label %.loopexit12

tailrecurse.i:                                    ; preds = %17
  %21 = getelementptr inbounds nuw i8, ptr %.tr1012.i, i64 16
  %22 = load ptr, ptr %21, align 8, !tbaa !25
  %23 = ptrtoint ptr %22 to i64
  %24 = and i64 %23, 1
  %.not.i = icmp eq i64 %24, 0
  br i1 %.not.i, label %11, label %.loopexit12

.loopexit12:                                      ; preds = %17, %14, %tailrecurse.i, %3
  %25 = getelementptr inbounds nuw i8, ptr %0, i64 616
  %26 = load ptr, ptr %25, align 8, !tbaa !26
  %27 = tail call i64 @fwrite(ptr nonnull @.str, i64 40, i64 1, ptr %26)
  %28 = getelementptr inbounds nuw i8, ptr %0, i64 624
  store i32 4, ptr %28, align 8, !tbaa !27
  br label %.loopexit

bddCheckPositiveCube.exit:                        ; preds = %bddCheckPositiveCube.exit.preheader, %bddCheckPositiveCube.exit
  store i32 0, ptr %13, align 8, !tbaa !28
  %29 = tail call ptr @cuddBddExistAbstractRecur(ptr noundef %0, ptr noundef %1, ptr noundef %2)
  %30 = load i32, ptr %13, align 8, !tbaa !28
  %31 = icmp eq i32 %30, 1
  br i1 %31, label %bddCheckPositiveCube.exit, label %.loopexit, !llvm.loop !29

.loopexit:                                        ; preds = %bddCheckPositiveCube.exit, %.loopexit12
  %.0 = phi ptr [ null, %.loopexit12 ], [ %29, %bddCheckPositiveCube.exit ]
  ret ptr %.0
}